#include <math.h>
#include <stdio.h>
#include <stdlib.h>
#include <string.h>
#include <iostream>
using namespace std;

//*******************************************************
//*?????????.cpp                               *
//*??????                                         *
//*?????2010?12?9?                              *
//*???????????????                       *
//*?????????????????????????? *
//       ??????????????????????? *
//*******************************************************
int a=2;//????????????
int result =0;//?????????????
void function(int,int);
int main()
{
	int n=0;
	int data=0;
	int i=0;
	cin>>n;
	for(i=1;i<=n;i++)
	{
		cin>>data;
		function(data,a);
		cout<<result<<endl;
		result=0;//??
	}
	return 0;
}
void function(int x,int y)
{
	int j=0;
	if(x==1)//??????1 ????????????
	{
		result=result+1;
	}
	for(j=y;j<=x;j++)//??1
	{
		if(x%j==0)//????????
		{
			function(x/j,j);
		}
	}
}